target datalayout = "e-m:e-p270:32:32-p271:32:32-p272:64:64-i64:64-i128:128-f80:128-n8:16:32:64-S128"
target triple = "x86_64-pc-linux-gnu"

%struct.H5O_msg_class_t = type { i32, ptr, i64, i32, ptr, ptr, ptr, ptr, ptr, ptr, ptr, ptr, ptr, ptr, ptr, ptr, ptr, ptr, ptr, ptr }
%struct.H5O_t = type { %struct.H5C_cache_entry_t, i64, i64, i8, i64, i8, i32, i8, i8, i64, i64, i64, i64, i32, i32, i64, i64, ptr, i64, i64, i64, i64, ptr, i8, ptr }
%struct.H5C_cache_entry_t = type { ptr, i64, i64, ptr, i8, ptr, i8, i8, i8, i8, i32, i8, i8, i8, i8, i8, i32, ptr, i32, i32, i32, i32, i32, i8, i8, ptr, ptr, ptr, ptr, ptr, ptr, i8, i32, i8, i64, ptr, i64, i64, i32, i8, i32, i32, i8, ptr, ptr, ptr }
%struct.H5O_mesg_t = type { ptr, i8, i8, i32, i32, ptr, ptr, i64 }

@H5O_init_g = external global i8, align 1
@H5_libterm_g = external global i8, align 1
@.str = private unnamed_addr constant [104 x i8] c"generated/home/dtcxzyw/WorkSpace/Projects/compilers/llvm-opt-benchmark/bench/hdf5/hdf5/src/H5Omessage.c\00", align 1
@H5E_CANTINIT_g = external global i64, align 8
@H5E_OHDR_g = external global i64, align 8
@H5E_WRITEERROR_g = external global i64, align 8
@.str.7 = private unnamed_addr constant [24 x i8] c"unable to write message\00", align 1
@__func__.H5O__msg_write_real = private unnamed_addr constant [20 x i8] c"H5O__msg_write_real\00", align 1
@H5E_NOTFOUND_g = external global i64, align 8
@.str.9 = private unnamed_addr constant [23 x i8] c"message type not found\00", align 1
@.str.10 = private unnamed_addr constant [34 x i8] c"unable to modify constant message\00", align 1
@H5E_CANTDELETE_g = external global i64, align 8
@.str.11 = private unnamed_addr constant [41 x i8] c"unable to delete message from SOHM index\00", align 1
@H5E_BADMESG_g = external global i64, align 8
@.str.12 = private unnamed_addr constant [36 x i8] c"error while trying to share message\00", align 1
@.str.13 = private unnamed_addr constant [31 x i8] c"message changed sharing status\00", align 1

; Function Attrs: nounwind uwtable
define i32 @H5O__msg_write_real(ptr noundef %0, ptr noundef %1, ptr noundef %2, i32 noundef %3, i32 noundef %4, ptr noundef %5) #0 {
  %7 = alloca i32, align 4
  %8 = alloca ptr, align 8
  %9 = alloca ptr, align 8
  %10 = alloca ptr, align 8
  %11 = alloca i32, align 4
  %12 = alloca i32, align 4
  %13 = alloca ptr, align 8
  %14 = alloca ptr, align 8
  %15 = alloca i64, align 8
  %16 = alloca i32, align 4
  %17 = alloca i8, align 1
  %18 = alloca i32, align 4
  %19 = alloca i32, align 4
  store ptr %0, ptr %8, align 8, !tbaa !22
  store ptr %1, ptr %9, align 8, !tbaa !11
  store ptr %2, ptr %10, align 8, !tbaa !23
  store i32 %3, ptr %11, align 4, !tbaa !8
  store i32 %4, ptr %12, align 4, !tbaa !8
  store ptr %5, ptr %13, align 8, !tbaa !10
  call void @llvm.lifetime.start.p0(i64 8, ptr %14) #5
  call void @llvm.lifetime.start.p0(i64 8, ptr %15) #5
  call void @llvm.lifetime.start.p0(i64 4, ptr %16) #5
  store i32 0, ptr %16, align 4, !tbaa !8
  call void @llvm.lifetime.start.p0(i64 1, ptr %17) #5
  store i8 0, ptr %17, align 1, !tbaa !13
  %20 = load i8, ptr @H5O_init_g, align 1, !tbaa !13, !range !15, !noundef !16
  %21 = trunc i8 %20 to i1
  br i1 %21, label %26, label %22

22:                                               ; preds = %6
  %23 = load i8, ptr @H5_libterm_g, align 1, !tbaa !13, !range !15, !noundef !16
  %24 = trunc i8 %23 to i1
  %25 = xor i1 %24, true
  br label %26

26:                                               ; preds = %22, %6
  %27 = phi i1 [ true, %6 ], [ %25, %22 ]
  %28 = xor i1 %27, true
  %29 = xor i1 %28, true
  %30 = zext i1 %29 to i32
  %31 = sext i32 %30 to i64
  %32 = call i64 @llvm.expect.i64(i64 %31, i64 1)
  %33 = icmp ne i64 %32, 0
  br i1 %33, label %34, label %253

34:                                               ; preds = %26
  store i64 0, ptr %15, align 8, !tbaa !17
  %35 = load ptr, ptr %9, align 8, !tbaa !11
  %36 = getelementptr inbounds nuw %struct.H5O_t, ptr %35, i32 0, i32 17
  %37 = load ptr, ptr %36, align 8, !tbaa !34
  %38 = getelementptr inbounds %struct.H5O_mesg_t, ptr %37, i64 0
  store ptr %38, ptr %14, align 8, !tbaa !47
  br label %39

39:                                               ; preds = %53, %34
  %40 = load i64, ptr %15, align 8, !tbaa !17
  %41 = load ptr, ptr %9, align 8, !tbaa !11
  %42 = getelementptr inbounds nuw %struct.H5O_t, ptr %41, i32 0, i32 15
  %43 = load i64, ptr %42, align 8, !tbaa !54
  %44 = icmp ult i64 %40, %43
  br i1 %44, label %45, label %58

45:                                               ; preds = %39
  %46 = load ptr, ptr %10, align 8, !tbaa !23
  %47 = load ptr, ptr %14, align 8, !tbaa !47
  %48 = getelementptr inbounds nuw %struct.H5O_mesg_t, ptr %47, i32 0, i32 0
  %49 = load ptr, ptr %48, align 8, !tbaa !55
  %50 = icmp eq ptr %46, %49
  br i1 %50, label %51, label %52

51:                                               ; preds = %45
  br label %58

52:                                               ; preds = %45
  br label %53

53:                                               ; preds = %52
  %54 = load i64, ptr %15, align 8, !tbaa !17
  %55 = add i64 %54, 1
  store i64 %55, ptr %15, align 8, !tbaa !17
  %56 = load ptr, ptr %14, align 8, !tbaa !47
  %57 = getelementptr inbounds nuw %struct.H5O_mesg_t, ptr %56, i32 1
  store ptr %57, ptr %14, align 8, !tbaa !47
  br label %39, !llvm.loop !56

58:                                               ; preds = %51, %39
  %59 = load i64, ptr %15, align 8, !tbaa !17
  %60 = load ptr, ptr %9, align 8, !tbaa !11
  %61 = getelementptr inbounds nuw %struct.H5O_t, ptr %60, i32 0, i32 15
  %62 = load i64, ptr %61, align 8, !tbaa !54
  %63 = icmp eq i64 %59, %62
  br i1 %63, label %64, label %83

64:                                               ; preds = %58
  br label %65

65:                                               ; preds = %64
  br label %66

66:                                               ; preds = %65
  br label %67

67:                                               ; preds = %66
  %68 = load i64, ptr @H5E_OHDR_g, align 8, !tbaa !17
  %69 = load i64, ptr @H5E_NOTFOUND_g, align 8, !tbaa !17
  %70 = call i32 (ptr, ptr, i32, i64, i64, ptr, ...) @H5E_printf_stack(ptr noundef @.str, ptr noundef @__func__.H5O__msg_write_real, i32 noundef 337, i64 noundef %68, i64 noundef %69, ptr noundef @.str.9)
  br label %71

71:                                               ; preds = %67
  br label %72

72:                                               ; preds = %71
  store i8 1, ptr %17, align 1, !tbaa !13
  %73 = load i8, ptr %17, align 1, !tbaa !13, !range !15, !noundef !16
  %74 = trunc i8 %73 to i1
  %75 = zext i1 %74 to i8
  store i8 %75, ptr %17, align 1, !tbaa !13
  br label %76

76:                                               ; preds = %72
  br label %77

77:                                               ; preds = %76
  br label %78

78:                                               ; preds = %77
  store i32 -1, ptr %16, align 4, !tbaa !8
  br label %252

79:                                               ; No predecessors!
  br label %80

80:                                               ; preds = %79
  br label %81

81:                                               ; preds = %80
  br label %82

82:                                               ; preds = %81
  br label %83

83:                                               ; preds = %82, %58
  %84 = load i32, ptr %12, align 4, !tbaa !8
  %85 = and i32 %84, 2
  %86 = icmp ne i32 %85, 0
  br i1 %86, label %113, label %87

87:                                               ; preds = %83
  %88 = load ptr, ptr %14, align 8, !tbaa !47
  %89 = getelementptr inbounds nuw %struct.H5O_mesg_t, ptr %88, i32 0, i32 2
  %90 = load i8, ptr %89, align 1, !tbaa !52
  %91 = zext i8 %90 to i32
  %92 = and i32 %91, 1
  %93 = icmp ne i32 %92, 0
  br i1 %93, label %94, label %113

94:                                               ; preds = %87
  br label %95

95:                                               ; preds = %94
  br label %96

96:                                               ; preds = %95
  br label %97

97:                                               ; preds = %96
  %98 = load i64, ptr @H5E_OHDR_g, align 8, !tbaa !17
  %99 = load i64, ptr @H5E_WRITEERROR_g, align 8, !tbaa !17
  %100 = call i32 (ptr, ptr, i32, i64, i64, ptr, ...) @H5E_printf_stack(ptr noundef @.str, ptr noundef @__func__.H5O__msg_write_real, i32 noundef 341, i64 noundef %98, i64 noundef %99, ptr noundef @.str.10)
  br label %101

101:                                              ; preds = %97
  br label %102

102:                                              ; preds = %101
  store i8 1, ptr %17, align 1, !tbaa !13
  %103 = load i8, ptr %17, align 1, !tbaa !13, !range !15, !noundef !16
  %104 = trunc i8 %103 to i1
  %105 = zext i1 %104 to i8
  store i8 %105, ptr %17, align 1, !tbaa !13
  br label %106

106:                                              ; preds = %102
  br label %107

107:                                              ; preds = %106
  br label %108

108:                                              ; preds = %107
  store i32 -1, ptr %16, align 4, !tbaa !8
  br label %252

109:                                              ; No predecessors!
  br label %110

110:                                              ; preds = %109
  br label %111

111:                                              ; preds = %110
  br label %112

112:                                              ; preds = %111
  br label %222

113:                                              ; preds = %87, %83
  %114 = load ptr, ptr %14, align 8, !tbaa !47
  %115 = getelementptr inbounds nuw %struct.H5O_mesg_t, ptr %114, i32 0, i32 2
  %116 = load i8, ptr %115, align 1, !tbaa !52
  %117 = zext i8 %116 to i32
  %118 = and i32 %117, 2
  %119 = icmp ne i32 %118, 0
  br i1 %119, label %127, label %120

120:                                              ; preds = %113
  %121 = load ptr, ptr %14, align 8, !tbaa !47
  %122 = getelementptr inbounds nuw %struct.H5O_mesg_t, ptr %121, i32 0, i32 2
  %123 = load i8, ptr %122, align 1, !tbaa !52
  %124 = zext i8 %123 to i32
  %125 = and i32 %124, 64
  %126 = icmp ne i32 %125, 0
  br i1 %126, label %127, label %221

127:                                              ; preds = %120, %113
  call void @llvm.lifetime.start.p0(i64 4, ptr %18) #5
  %128 = load ptr, ptr %8, align 8, !tbaa !22
  %129 = load ptr, ptr %9, align 8, !tbaa !11
  %130 = load ptr, ptr %14, align 8, !tbaa !47
  %131 = getelementptr inbounds nuw %struct.H5O_mesg_t, ptr %130, i32 0, i32 5
  %132 = load ptr, ptr %131, align 8, !tbaa !50
  %133 = call i32 @H5SM_delete(ptr noundef %128, ptr noundef %129, ptr noundef %132)
  %134 = icmp slt i32 %133, 0
  br i1 %134, label %135, label %154

135:                                              ; preds = %127
  br label %136

136:                                              ; preds = %135
  br label %137

137:                                              ; preds = %136
  br label %138

138:                                              ; preds = %137
  %139 = load i64, ptr @H5E_OHDR_g, align 8, !tbaa !17
  %140 = load i64, ptr @H5E_CANTDELETE_g, align 8, !tbaa !17
  %141 = call i32 (ptr, ptr, i32, i64, i64, ptr, ...) @H5E_printf_stack(ptr noundef @.str, ptr noundef @__func__.H5O__msg_write_real, i32 noundef 365, i64 noundef %139, i64 noundef %140, ptr noundef @.str.11)
  br label %142

142:                                              ; preds = %138
  br label %143

143:                                              ; preds = %142
  store i8 1, ptr %17, align 1, !tbaa !13
  %144 = load i8, ptr %17, align 1, !tbaa !13, !range !15, !noundef !16
  %145 = trunc i8 %144 to i1
  %146 = zext i1 %145 to i8
  store i8 %146, ptr %17, align 1, !tbaa !13
  br label %147

147:                                              ; preds = %143
  br label %148

148:                                              ; preds = %147
  br label %149

149:                                              ; preds = %148
  store i32 -1, ptr %16, align 4, !tbaa !8
  store i32 13, ptr %19, align 4
  br label %218

150:                                              ; No predecessors!
  br label %151

151:                                              ; preds = %150
  br label %152

152:                                              ; preds = %151
  br label %153

153:                                              ; preds = %152
  br label %154

154:                                              ; preds = %153, %127
  %155 = load ptr, ptr %8, align 8, !tbaa !22
  %156 = load i32, ptr %11, align 4, !tbaa !8
  %157 = and i32 %156, 2
  %158 = icmp ne i32 %157, 0
  br i1 %158, label %159, label %160

159:                                              ; preds = %154
  br label %162

160:                                              ; preds = %154
  %161 = load ptr, ptr %9, align 8, !tbaa !11
  br label %162

162:                                              ; preds = %160, %159
  %163 = phi ptr [ null, %159 ], [ %161, %160 ]
  %164 = load ptr, ptr %14, align 8, !tbaa !47
  %165 = getelementptr inbounds nuw %struct.H5O_mesg_t, ptr %164, i32 0, i32 0
  %166 = load ptr, ptr %165, align 8, !tbaa !55
  %167 = getelementptr inbounds nuw %struct.H5O_msg_class_t, ptr %166, i32 0, i32 0
  %168 = load i32, ptr %167, align 8, !tbaa !29
  %169 = load ptr, ptr %13, align 8, !tbaa !10
  %170 = call i32 @H5SM_try_share(ptr noundef %155, ptr noundef %163, i32 noundef 0, i32 noundef %168, ptr noundef %169, ptr noundef %11)
  store i32 %170, ptr %18, align 4, !tbaa !8
  %171 = icmp slt i32 %170, 0
  br i1 %171, label %172, label %191

172:                                              ; preds = %162
  br label %173

173:                                              ; preds = %172
  br label %174

174:                                              ; preds = %173
  br label %175

175:                                              ; preds = %174
  %176 = load i64, ptr @H5E_OHDR_g, align 8, !tbaa !17
  %177 = load i64, ptr @H5E_BADMESG_g, align 8, !tbaa !17
  %178 = call i32 (ptr, ptr, i32, i64, i64, ptr, ...) @H5E_printf_stack(ptr noundef @.str, ptr noundef @__func__.H5O__msg_write_real, i32 noundef 376, i64 noundef %176, i64 noundef %177, ptr noundef @.str.12)
  br label %179

179:                                              ; preds = %175
  br label %180

180:                                              ; preds = %179
  store i8 1, ptr %17, align 1, !tbaa !13
  %181 = load i8, ptr %17, align 1, !tbaa !13, !range !15, !noundef !16
  %182 = trunc i8 %181 to i1
  %183 = zext i1 %182 to i8
  store i8 %183, ptr %17, align 1, !tbaa !13
  br label %184

184:                                              ; preds = %180
  br label %185

185:                                              ; preds = %184
  br label %186

186:                                              ; preds = %185
  store i32 -1, ptr %16, align 4, !tbaa !8
  store i32 13, ptr %19, align 4
  br label %218

187:                                              ; No predecessors!
  br label %188

188:                                              ; preds = %187
  br label %189

189:                                              ; preds = %188
  br label %190

190:                                              ; preds = %189
  br label %191

191:                                              ; preds = %190, %162
  %192 = load i32, ptr %18, align 4, !tbaa !8
  %193 = icmp eq i32 %192, 0
  br i1 %193, label %194, label %217

194:                                              ; preds = %191
  %195 = load i32, ptr %11, align 4, !tbaa !8
  %196 = and i32 %195, 2
  %197 = icmp ne i32 %196, 0
  br i1 %197, label %198, label %217

198:                                              ; preds = %194
  br label %199

199:                                              ; preds = %198
  br label %200

200:                                              ; preds = %199
  br label %201

201:                                              ; preds = %200
  %202 = load i64, ptr @H5E_OHDR_g, align 8, !tbaa !17
  %203 = load i64, ptr @H5E_BADMESG_g, align 8, !tbaa !17
  %204 = call i32 (ptr, ptr, i32, i64, i64, ptr, ...) @H5E_printf_stack(ptr noundef @.str, ptr noundef @__func__.H5O__msg_write_real, i32 noundef 378, i64 noundef %202, i64 noundef %203, ptr noundef @.str.13)
  br label %205

205:                                              ; preds = %201
  br label %206

206:                                              ; preds = %205
  store i8 1, ptr %17, align 1, !tbaa !13
  %207 = load i8, ptr %17, align 1, !tbaa !13, !range !15, !noundef !16
  %208 = trunc i8 %207 to i1
  %209 = zext i1 %208 to i8
  store i8 %209, ptr %17, align 1, !tbaa !13
  br label %210

210:                                              ; preds = %206
  br label %211

211:                                              ; preds = %210
  br label %212

212:                                              ; preds = %211
  store i32 -1, ptr %16, align 4, !tbaa !8
  store i32 13, ptr %19, align 4
  br label %218

213:                                              ; No predecessors!
  br label %214

214:                                              ; preds = %213
  br label %215

215:                                              ; preds = %214
  br label %216

216:                                              ; preds = %215
  br label %217

217:                                              ; preds = %216, %194, %191
  store i32 0, ptr %19, align 4
  br label %218

218:                                              ; preds = %212, %186, %149, %217
  call void @llvm.lifetime.end.p0(i64 4, ptr %18) #5
  %219 = load i32, ptr %19, align 4
  switch i32 %219, label %255 [
    i32 0, label %220
    i32 13, label %252
  ]

220:                                              ; preds = %218
  br label %221

221:                                              ; preds = %220, %120
  br label %222

222:                                              ; preds = %221, %112
  %223 = load ptr, ptr %8, align 8, !tbaa !22
  %224 = load ptr, ptr %9, align 8, !tbaa !11
  %225 = load i64, ptr %15, align 8, !tbaa !17
  %226 = load ptr, ptr %10, align 8, !tbaa !23
  %227 = load ptr, ptr %13, align 8, !tbaa !10
  %228 = load i32, ptr %11, align 4, !tbaa !8
  %229 = load i32, ptr %12, align 4, !tbaa !8
  %230 = call i32 @H5O__copy_mesg(ptr noundef %223, ptr noundef %224, i64 noundef %225, ptr noundef %226, ptr noundef %227, i32 noundef %228, i32 noundef %229)
  %231 = icmp slt i32 %230, 0
  br i1 %231, label %232, label %251

232:                                              ; preds = %222
  br label %233

233:                                              ; preds = %232
  br label %234

234:                                              ; preds = %233
  br label %235

235:                                              ; preds = %234
  %236 = load i64, ptr @H5E_OHDR_g, align 8, !tbaa !17
  %237 = load i64, ptr @H5E_CANTINIT_g, align 8, !tbaa !17
  %238 = call i32 (ptr, ptr, i32, i64, i64, ptr, ...) @H5E_printf_stack(ptr noundef @.str, ptr noundef @__func__.H5O__msg_write_real, i32 noundef 383, i64 noundef %236, i64 noundef %237, ptr noundef @.str.7)
  br label %239

239:                                              ; preds = %235
  br label %240

240:                                              ; preds = %239
  store i8 1, ptr %17, align 1, !tbaa !13
  %241 = load i8, ptr %17, align 1, !tbaa !13, !range !15, !noundef !16
  %242 = trunc i8 %241 to i1
  %243 = zext i1 %242 to i8
  store i8 %243, ptr %17, align 1, !tbaa !13
  br label %244

244:                                              ; preds = %240
  br label %245

245:                                              ; preds = %244
  br label %246

246:                                              ; preds = %245
  store i32 -1, ptr %16, align 4, !tbaa !8
  br label %252

247:                                              ; No predecessors!
  br label %248

248:                                              ; preds = %247
  br label %249

249:                                              ; preds = %248
  br label %250

250:                                              ; preds = %249
  br label %251

251:                                              ; preds = %250, %222
  br label %252

252:                                              ; preds = %251, %218, %246, %108, %78
  br label %253

253:                                              ; preds = %252, %26
  %254 = load i32, ptr %16, align 4, !tbaa !8
  store i32 %254, ptr %7, align 4
  store i32 1, ptr %19, align 4
  br label %255

255:                                              ; preds = %253, %218
  call void @llvm.lifetime.end.p0(i64 1, ptr %17) #5
  call void @llvm.lifetime.end.p0(i64 4, ptr %16) #5
  call void @llvm.lifetime.end.p0(i64 8, ptr %15) #5
  call void @llvm.lifetime.end.p0(i64 8, ptr %14) #5
  %256 = load i32, ptr %7, align 4
  ret i32 %256
}