; Function Attrs: nounwind uwtable
define range(i32 -1, 1) i32 @H5O__msg_write_real(ptr noundef %0, ptr noundef %1, ptr noundef readonly captures(address) %2, i32 noundef %3, i32 noundef %4, ptr noundef %5) local_unnamed_addr #0 {
  %7 = alloca i32, align 4
  store i32 %3, ptr %7, align 4, !tbaa !18
  %8 = load i8, ptr @H5O_init_g, align 1, !tbaa !3, !range !7, !noundef !8
  %9 = trunc nuw i8 %8 to i1
  %10 = load i8, ptr @H5_libterm_g, align 1, !range !7
  %11 = trunc nuw i8 %10 to i1
  %12 = xor i1 %11, true
  %13 = select i1 %9, i1 true, i1 %12
  br i1 %13, label %14, label %.thread, !prof !9

14:                                               ; preds = %6
  %15 = getelementptr inbounds nuw i8, ptr %1, i64 352
  %16 = load ptr, ptr %15, align 8, !tbaa !28
  %17 = getelementptr inbounds nuw i8, ptr %1, i64 336
  %18 = load i64, ptr %17, align 8, !tbaa !49
  %.not56 = icmp eq i64 %18, 0
  br i1 %.not56, label %._crit_edge, label %.lr.ph

.lr.ph:                                           ; preds = %14, %21
  %.03749 = phi i64 [ %22, %21 ], [ 0, %14 ]
  %.03848 = phi ptr [ %23, %21 ], [ %16, %14 ]
  %19 = load ptr, ptr %.03848, align 8, !tbaa !50
  %20 = icmp eq ptr %2, %19
  br i1 %20, label %._crit_edge, label %21

21:                                               ; preds = %.lr.ph
  %22 = add nuw i64 %.03749, 1
  %23 = getelementptr inbounds nuw i8, ptr %.03848, i64 48
  %exitcond.not = icmp eq i64 %22, %18
  br i1 %exitcond.not, label %._crit_edge.thread, label %.lr.ph, !llvm.loop !51

._crit_edge:                                      ; preds = %.lr.ph, %14
  %.038.lcssa = phi ptr [ %16, %14 ], [ %.03848, %.lr.ph ]
  %.037.lcssa = phi i64 [ 0, %14 ], [ %.03749, %.lr.ph ]
  %24 = icmp eq i64 %.037.lcssa, %18
  br i1 %24, label %._crit_edge.thread, label %28

._crit_edge.thread:                               ; preds = %21, %._crit_edge
  %25 = load i64, ptr @H5E_OHDR_g, align 8, !tbaa !10
  %26 = load i64, ptr @H5E_NOTFOUND_g, align 8, !tbaa !10
  %27 = tail call i32 (ptr, ptr, i32, i64, i64, ptr, ...) @H5E_printf_stack(ptr noundef nonnull @.str, ptr noundef nonnull @__func__.H5O__msg_write_real, i32 noundef 337, i64 noundef %25, i64 noundef %26, ptr noundef nonnull @.str.9) #7
  br label %.thread

28:                                               ; preds = %._crit_edge
  %29 = and i32 %4, 2
  %.not = icmp ne i32 %29, 0
  %30 = getelementptr inbounds nuw i8, ptr %.038.lcssa, i64 9
  %31 = load i8, ptr %30, align 1, !tbaa !47
  %32 = and i8 %31, 1
  %.not40 = icmp eq i8 %32, 0
  %or.cond63 = select i1 %.not, i1 true, i1 %.not40
  br i1 %or.cond63, label %._crit_edge57, label %33

33:                                               ; preds = %28
  %34 = load i64, ptr @H5E_OHDR_g, align 8, !tbaa !10
  %35 = load i64, ptr @H5E_WRITEERROR_g, align 8, !tbaa !10
  %36 = tail call i32 (ptr, ptr, i32, i64, i64, ptr, ...) @H5E_printf_stack(ptr noundef nonnull @.str, ptr noundef nonnull @__func__.H5O__msg_write_real, i32 noundef 341, i64 noundef %34, i64 noundef %35, ptr noundef nonnull @.str.10) #7
  br label %.thread

._crit_edge57:                                    ; preds = %28
  %37 = and i8 %31, 66
  %or.cond = icmp eq i8 %37, 0
  br i1 %or.cond, label %65, label %38

38:                                               ; preds = %._crit_edge57
  %39 = getelementptr inbounds nuw i8, ptr %.038.lcssa, i64 24
  %40 = load ptr, ptr %39, align 8, !tbaa !42
  %41 = tail call i32 @H5SM_delete(ptr noundef %0, ptr noundef nonnull %1, ptr noundef %40) #7
  %42 = icmp slt i32 %41, 0
  br i1 %42, label %43, label %47

43:                                               ; preds = %38
  %44 = load i64, ptr @H5E_OHDR_g, align 8, !tbaa !10
  %45 = load i64, ptr @H5E_CANTDELETE_g, align 8, !tbaa !10
  %46 = tail call i32 (ptr, ptr, i32, i64, i64, ptr, ...) @H5E_printf_stack(ptr noundef nonnull @.str, ptr noundef nonnull @__func__.H5O__msg_write_real, i32 noundef 365, i64 noundef %44, i64 noundef %45, ptr noundef nonnull @.str.11) #7
  br label %.thread

47:                                               ; preds = %38
  %48 = and i32 %3, 2
  %.not43 = icmp eq i32 %48, 0
  %49 = select i1 %.not43, ptr %1, ptr null
  %50 = load ptr, ptr %.038.lcssa, align 8, !tbaa !50
  %51 = load i32, ptr %50, align 8, !tbaa !20
  %52 = call i32 @H5SM_try_share(ptr noundef %0, ptr noundef %49, i32 noundef 0, i32 noundef %51, ptr noundef %5, ptr noundef nonnull %7) #7
  %53 = icmp slt i32 %52, 0
  br i1 %53, label %54, label %58

54:                                               ; preds = %47
  %55 = load i64, ptr @H5E_OHDR_g, align 8, !tbaa !10
  %56 = load i64, ptr @H5E_BADMESG_g, align 8, !tbaa !10
  %57 = call i32 (ptr, ptr, i32, i64, i64, ptr, ...) @H5E_printf_stack(ptr noundef nonnull @.str, ptr noundef nonnull @__func__.H5O__msg_write_real, i32 noundef 376, i64 noundef %55, i64 noundef %56, ptr noundef nonnull @.str.12) #7
  br label %.thread

58:                                               ; preds = %47
  %59 = icmp ne i32 %52, 0
  %.pre58 = load i32, ptr %7, align 4, !tbaa !18
  %60 = and i32 %.pre58, 2
  %.not44 = icmp eq i32 %60, 0
  %or.cond64 = select i1 %59, i1 true, i1 %.not44
  br i1 %or.cond64, label %65, label %61

61:                                               ; preds = %58
  %62 = load i64, ptr @H5E_OHDR_g, align 8, !tbaa !10
  %63 = load i64, ptr @H5E_BADMESG_g, align 8, !tbaa !10
  %64 = call i32 (ptr, ptr, i32, i64, i64, ptr, ...) @H5E_printf_stack(ptr noundef nonnull @.str, ptr noundef nonnull @__func__.H5O__msg_write_real, i32 noundef 378, i64 noundef %62, i64 noundef %63, ptr noundef nonnull @.str.13) #7
  br label %.thread

65:                                               ; preds = %58, %._crit_edge57
  %66 = phi i32 [ %.pre58, %58 ], [ %3, %._crit_edge57 ]
  %67 = call fastcc i32 @H5O__copy_mesg(ptr noundef %0, ptr noundef nonnull %1, i64 noundef %.037.lcssa, ptr noundef %2, ptr noundef %5, i32 noundef %66, i32 noundef %4)
  %68 = icmp slt i32 %67, 0
  br i1 %68, label %69, label %.thread

69:                                               ; preds = %65
  %70 = load i64, ptr @H5E_OHDR_g, align 8, !tbaa !10
  %71 = load i64, ptr @H5E_CANTINIT_g, align 8, !tbaa !10
  %72 = call i32 (ptr, ptr, i32, i64, i64, ptr, ...) @H5E_printf_stack(ptr noundef nonnull @.str, ptr noundef nonnull @__func__.H5O__msg_write_real, i32 noundef 383, i64 noundef %70, i64 noundef %71, ptr noundef nonnull @.str.7) #7
  br label %.thread

.thread:                                          ; preds = %61, %54, %43, %6, %65, %69, %33, %._crit_edge.thread
  %.035 = phi i32 [ -1, %._crit_edge.thread ], [ -1, %69 ], [ 0, %65 ], [ -1, %33 ], [ 0, %6 ], [ -1, %43 ], [ -1, %54 ], [ -1, %61 ]
  ret i32 %.035
}